; Function Attrs: mustprogress nounwind uwtable
define internal fastcc void @_ZN4ncnnL25convdw5x5s2_pack16_avx512ERKNS_3MatERS0_S2_S2_RKNS_6OptionE(ptr noundef nonnull align 8 dereferenceable(72) %0, ptr noundef nonnull align 8 dereferenceable(72) %1, ptr noundef nonnull align 8 dereferenceable(72) %2, ptr noundef nonnull readonly align 8 captures(none) dereferenceable(72) %3, ptr noundef nonnull readonly align 8 captures(none) dereferenceable(64) %4) unnamed_addr #12 {
  %6 = alloca i32, align 4
  %7 = alloca i32, align 4
  %8 = alloca i32, align 4
  %9 = alloca i32, align 4
  %10 = alloca ptr, align 8
  %11 = tail call i32 @__kmpc_global_thread_num(ptr nonnull @2)
  %12 = getelementptr inbounds nuw i8, ptr %0, i64 44
  %13 = load i32, ptr %12, align 4, !tbaa !61
  call void @llvm.lifetime.start.p0(i64 4, ptr nonnull %6) #14
  %14 = getelementptr inbounds nuw i8, ptr %1, i64 44
  %15 = load i32, ptr %14, align 4, !tbaa !61
  store i32 %15, ptr %6, align 4, !tbaa !82
  call void @llvm.lifetime.start.p0(i64 4, ptr nonnull %7) #14
  %16 = getelementptr inbounds nuw i8, ptr %1, i64 48
  %17 = load i32, ptr %16, align 8, !tbaa !62
  store i32 %17, ptr %7, align 4, !tbaa !82
  call void @llvm.lifetime.start.p0(i64 4, ptr nonnull %8) #14
  %18 = getelementptr inbounds nuw i8, ptr %0, i64 56
  %19 = load i32, ptr %18, align 8, !tbaa !64
  store i32 %19, ptr %8, align 4, !tbaa !82
  call void @llvm.lifetime.start.p0(i64 4, ptr nonnull %9) #14
  %20 = sub i32 %13, %15
  %21 = shl i32 %20, 5
  store i32 %21, ptr %9, align 4, !tbaa !82
  call void @llvm.lifetime.start.p0(i64 8, ptr nonnull %10) #14
  %22 = load ptr, ptr %3, align 8, !tbaa !16
  store ptr %22, ptr %10, align 8, !tbaa !150
  %23 = getelementptr inbounds nuw i8, ptr %4, i64 4
  %24 = load i32, ptr %23, align 4, !tbaa !86
  tail call void @__kmpc_push_num_threads(ptr nonnull @2, i32 %11, i32 %24)
  call void (ptr, i32, ptr, ...) @__kmpc_fork_call(ptr nonnull @2, i32 8, ptr nonnull @_ZN4ncnnL25convdw5x5s2_pack16_avx512ERKNS_3MatERS0_S2_S2_RKNS_6OptionE.omp_outlined, ptr nonnull %8, ptr nonnull %1, ptr nonnull %10, ptr nonnull %2, ptr nonnull %0, ptr nonnull %7, ptr nonnull %6, ptr nonnull %9)
  call void @llvm.lifetime.end.p0(i64 8, ptr nonnull %10) #14
  call void @llvm.lifetime.end.p0(i64 4, ptr nonnull %9) #14
  call void @llvm.lifetime.end.p0(i64 4, ptr nonnull %8) #14
  call void @llvm.lifetime.end.p0(i64 4, ptr nonnull %7) #14
  call void @llvm.lifetime.end.p0(i64 4, ptr nonnull %6) #14
  ret void
}